target datalayout = "e-m:e-p270:32:32-p271:32:32-p272:64:64-i64:64-i128:128-f80:128-n8:16:32:64-S128"
target triple = "x86_64-pc-linux-gnu"

%struct.hb_object_header_t = type { %struct.hb_reference_count_t, %struct.hb_atomic_int_t, %struct.hb_atomic_ptr_t }
%struct.hb_reference_count_t = type { %struct.hb_atomic_int_t }
%struct.hb_atomic_int_t = type { i32 }
%struct.hb_atomic_ptr_t = type { ptr }
%struct.hb_segment_properties_t = type { i32, i32, ptr, ptr, ptr }
%struct.hb_buffer_t = type <{ %struct.hb_object_header_t, ptr, i32, i32, i32, i32, i32, i32, %struct.hb_segment_properties_t, i8, i8, i8, i8, i32, i32, i32, i32, [4 x i8], ptr, ptr, ptr, [2 x [5 x i32]], [2 x i32], i8, i8, [2 x i8], i32, i32, i32, ptr, ptr, ptr, i32, [4 x i8] }>

; Function Attrs: mustprogress nounwind uwtable
define linkonce_odr hidden noundef i32 @_ZNK15hb_atomic_int_t11get_relaxedEv(ptr noundef nonnull align 4 dereferenceable(4) %0) #0 comdat align 2 {
  %2 = alloca ptr, align 8
  %3 = alloca i32, align 4
  store ptr %0, ptr %2, align 8
  %4 = load ptr, ptr %2, align 8
  %5 = getelementptr inbounds %struct.hb_atomic_int_t, ptr %4, i32 0, i32 0
  %6 = load atomic i32, ptr %5 monotonic, align 4
  store i32 %6, ptr %3, align 4
  %7 = load i32, ptr %3, align 4
  ret i32 %7
}

; Function Attrs: mustprogress nounwind uwtable
define linkonce_odr hidden void @_ZN11hb_buffer_t18deallocate_var_allEv(ptr noundef nonnull align 8 dereferenceable(220) %0) #0 comdat align 2 {
  %2 = alloca ptr, align 8
  store ptr %0, ptr %2, align 8
  %3 = load ptr, ptr %2, align 8
  %4 = getelementptr inbounds %struct.hb_buffer_t, ptr %3, i32 0, i32 23
  store i8 0, ptr %4, align 8
  ret void
}

; Function Attrs: mustprogress nounwind uwtable
define internal noundef ptr @_ZL9hb_memsetPvij(ptr noundef %0, i32 noundef %1, i32 noundef %2) #0 {
  %4 = alloca ptr, align 8
  %5 = alloca ptr, align 8
  %6 = alloca i32, align 4
  %7 = alloca i32, align 4
  store ptr %0, ptr %5, align 8
  store i32 %1, ptr %6, align 4
  store i32 %2, ptr %7, align 4
  %8 = load i32, ptr %7, align 4
  %9 = icmp ne i32 %8, 0
  br i1 %9, label %12, label %10

10:                                               ; preds = %3
  %11 = load ptr, ptr %5, align 8
  store ptr %11, ptr %4, align 8
  br label %18

12:                                               ; preds = %3
  %13 = load ptr, ptr %5, align 8
  %14 = load i32, ptr %6, align 4
  %15 = trunc i32 %14 to i8
  %16 = load i32, ptr %7, align 4
  %17 = zext i32 %16 to i64
  call void @llvm.memset.p0.i64(ptr align 1 %13, i8 %15, i64 %17, i1 false)
  store ptr %13, ptr %4, align 8
  br label %18

18:                                               ; preds = %12, %10
  %19 = load ptr, ptr %4, align 8
  ret ptr %19
}

; Function Attrs: mustprogress uwtable
define linkonce_odr hidden noundef i32 @_ZNK15hb_atomic_int_tcviEv(ptr noundef nonnull align 4 dereferenceable(4) %0) #1 comdat align 2 {
  %2 = alloca ptr, align 8
  store ptr %0, ptr %2, align 8
  %3 = load ptr, ptr %2, align 8
  %4 = call noundef i32 @_ZNK15hb_atomic_int_t11get_relaxedEv(ptr noundef nonnull align 4 dereferenceable(4) %3)
  ret i32 %4
}

; Function Attrs: mustprogress uwtable
define hidden void @_ZN11hb_buffer_t5clearEv(ptr noundef nonnull align 8 dereferenceable(220) %0) #1 align 2 {
  %2 = alloca ptr, align 8
  %3 = alloca %struct.hb_segment_properties_t, align 8
  store ptr %0, ptr %2, align 8
  %4 = load ptr, ptr %2, align 8
  %5 = getelementptr inbounds %struct.hb_buffer_t, ptr %4, i32 0, i32 7
  store i32 0, ptr %5, align 4
  call void @llvm.memset.p0.i64(ptr align 8 %3, i8 0, i64 32, i1 false)
  %6 = getelementptr inbounds %struct.hb_buffer_t, ptr %4, i32 0, i32 8
  call void @llvm.memcpy.p0.p0.i64(ptr align 8 %6, ptr align 8 %3, i64 32, i1 false)
  %7 = getelementptr inbounds %struct.hb_buffer_t, ptr %4, i32 0, i32 9
  store i8 1, ptr %7, align 8
  %8 = getelementptr inbounds %struct.hb_buffer_t, ptr %4, i32 0, i32 10
  store i8 0, ptr %8, align 1
  %9 = getelementptr inbounds %struct.hb_buffer_t, ptr %4, i32 0, i32 11
  store i8 0, ptr %9, align 2
  %10 = getelementptr inbounds %struct.hb_buffer_t, ptr %4, i32 0, i32 12
  store i8 0, ptr %10, align 1
  %11 = getelementptr inbounds %struct.hb_buffer_t, ptr %4, i32 0, i32 13
  store i32 0, ptr %11, align 4
  %12 = getelementptr inbounds %struct.hb_buffer_t, ptr %4, i32 0, i32 14
  store i32 0, ptr %12, align 8
  %13 = getelementptr inbounds %struct.hb_buffer_t, ptr %4, i32 0, i32 15
  store i32 0, ptr %13, align 4
  %14 = getelementptr inbounds %struct.hb_buffer_t, ptr %4, i32 0, i32 18
  %15 = load ptr, ptr %14, align 8
  %16 = getelementptr inbounds %struct.hb_buffer_t, ptr %4, i32 0, i32 19
  store ptr %15, ptr %16, align 8
  %17 = getelementptr inbounds %struct.hb_buffer_t, ptr %4, i32 0, i32 21
  %18 = getelementptr inbounds [2 x [5 x i32]], ptr %17, i64 0, i64 0
  %19 = call noundef ptr @_ZL9hb_memsetPvij(ptr noundef %18, i32 noundef 0, i32 noundef 40)
  %20 = getelementptr inbounds %struct.hb_buffer_t, ptr %4, i32 0, i32 22
  %21 = getelementptr inbounds [2 x i32], ptr %20, i64 0, i64 0
  %22 = call noundef ptr @_ZL9hb_memsetPvij(ptr noundef %21, i32 noundef 0, i32 noundef 8)
  call void @_ZN11hb_buffer_t18deallocate_var_allEv(ptr noundef nonnull align 8 dereferenceable(220) %4)
  %23 = getelementptr inbounds %struct.hb_buffer_t, ptr %4, i32 0, i32 24
  store i8 0, ptr %23, align 1
  %24 = getelementptr inbounds %struct.hb_buffer_t, ptr %4, i32 0, i32 26
  store i32 0, ptr %24, align 4
  ret void
}

; Function Attrs: mustprogress uwtable
define internal noundef zeroext i1 @_ZL22hb_object_is_immutableI11hb_buffer_tEbPKT_(ptr noundef %0) #1 {
  %2 = alloca ptr, align 8
  store ptr %0, ptr %2, align 8
  %3 = load ptr, ptr %2, align 8
  %4 = getelementptr inbounds %struct.hb_buffer_t, ptr %3, i32 0, i32 0
  %5 = getelementptr inbounds %struct.hb_object_header_t, ptr %4, i32 0, i32 1
  %6 = call noundef i32 @_ZNK15hb_atomic_int_tcviEv(ptr noundef nonnull align 4 dereferenceable(4) %5)
  %7 = icmp ne i32 %6, 0
  %8 = xor i1 %7, true
  ret i1 %8
}

; Function Attrs: mustprogress uwtable
define hidden void @hb_buffer_clear_contents(ptr noundef %0) #1 {
  %2 = alloca ptr, align 8
  store ptr %0, ptr %2, align 8
  %3 = load ptr, ptr %2, align 8
  %4 = call noundef zeroext i1 @_ZL22hb_object_is_immutableI11hb_buffer_tEbPKT_(ptr noundef %3)
  br i1 %4, label %5, label %6

5:                                                ; preds = %1
  br label %8

6:                                                ; preds = %1
  %7 = load ptr, ptr %2, align 8
  call void @_ZN11hb_buffer_t5clearEv(ptr noundef nonnull align 8 dereferenceable(220) %7)
  br label %8

8:                                                ; preds = %6, %5
  ret void
}