; Function Attrs: mustprogress nofree norecurse nounwind willreturn memory(argmem: readwrite) uwtable
define hidden void @hb_buffer_clear_contents(ptr nocapture noundef %0) local_unnamed_addr #12 {
  %2 = getelementptr inbounds i8, ptr %0, i64 4
  %3 = load atomic i32, ptr %2 monotonic, align 4
  %.not.i = icmp eq i32 %3, 0
  br i1 %.not.i, label %13, label %4

4:                                                ; preds = %1
  %5 = getelementptr inbounds i8, ptr %0, i64 44
  %6 = getelementptr inbounds i8, ptr %0, i64 80
  tail call void @llvm.memset.p0.i64(ptr noundef nonnull align 4 dereferenceable(36) %5, i8 0, i64 36, i1 false)
  store i8 1, ptr %6, align 8
  %7 = getelementptr inbounds i8, ptr %0, i64 81
  %8 = getelementptr inbounds i8, ptr %0, i64 104
  tail call void @llvm.memset.p0.i64(ptr noundef nonnull align 1 dereferenceable(15) %7, i8 0, i64 15, i1 false)
  %9 = load ptr, ptr %8, align 8
  %10 = getelementptr inbounds i8, ptr %0, i64 112
  store ptr %9, ptr %10, align 8
  %11 = getelementptr inbounds i8, ptr %0, i64 128
  %12 = getelementptr inbounds i8, ptr %0, i64 180
  store i32 0, ptr %12, align 4
  tail call void @llvm.memset.p0.i64(ptr noundef nonnull align 8 dereferenceable(50) %11, i8 0, i64 50, i1 false)
  br label %13

13:                                               ; preds = %1, %4
  ret void
}